; Function Attrs: nounwind uwtable
define dso_local ptr @GetUserNameFromId(i32 noundef %0, i1 noundef zeroext %1) local_unnamed_addr #0 {
  %3 = zext i32 %0 to i64
  %4 = tail call ptr @SearchSysCache1(i32 noundef 11, i64 noundef %3) #22
  %.not = icmp eq ptr %4, null
  br i1 %.not, label %5, label %10

5:                                                ; preds = %2
  br i1 %1, label %18, label %6

6:                                                ; preds = %5
  %7 = tail call zeroext i1 @errstart_cold(i32 noundef 21, ptr noundef null) #23
  tail call void @llvm.assume(i1 %7)
  %8 = tail call i32 @errcode(i32 noundef 67137668) #22
  %9 = tail call i32 (ptr, ...) @errmsg(ptr noundef nonnull @.str.38, i32 noundef %0) #22
  tail call void @errfinish(ptr noundef nonnull @.str.1, i32 noundef 1047, ptr noundef nonnull @__func__.GetUserNameFromId) #22
  unreachable

10:                                               ; preds = %2
  %11 = getelementptr i8, ptr %4, i64 16
  %.val = load ptr, ptr %11, align 8
  %12 = getelementptr inbounds nuw i8, ptr %.val, i64 22
  %13 = load i8, ptr %12, align 2
  %14 = zext i8 %13 to i64
  %15 = getelementptr inbounds nuw i8, ptr %.val, i64 %14
  %16 = getelementptr inbounds nuw i8, ptr %15, i64 4
  %17 = tail call ptr @pstrdup(ptr noundef nonnull %16) #22
  tail call void @ReleaseSysCache(ptr noundef nonnull %4) #22
  br label %18

18:                                               ; preds = %5, %10
  %.0 = phi ptr [ %17, %10 ], [ null, %5 ]
  ret ptr %.0
}